target datalayout = "e-m:e-p270:32:32-p271:32:32-p272:64:64-i64:64-i128:128-f80:128-n8:16:32:64-S128"
target triple = "x86_64-pc-linux-gnu"

%"class.rocksdb::DataBlockHashIndex" = type { i16 }

; Function Attrs: inlinehint mustprogress nounwind uwtable
define linkonce_odr noundef zeroext i16 @_ZN7rocksdb13DecodeFixed16EPKc(ptr noundef %0) #4 comdat {
  %2 = alloca ptr, align 8
  %3 = alloca i16, align 2
  store ptr %0, ptr %2, align 8, !tbaa !31
  call void @llvm.lifetime.start.p0(i64 2, ptr %3) #13
  %4 = load ptr, ptr %2, align 8, !tbaa !31
  call void @llvm.memcpy.p0.p0.i64(ptr align 2 %3, ptr align 1 %4, i64 2, i1 false)
  %5 = load i16, ptr %3, align 2, !tbaa !37
  call void @llvm.lifetime.end.p0(i64 2, ptr %3) #13
  ret i16 %5
}

; Function Attrs: mustprogress uwtable
define void @_ZN7rocksdb18DataBlockHashIndex10InitializeEPKctPt(ptr noundef nonnull align 2 dereferenceable(2) %0, ptr noundef %1, i16 noundef zeroext %2, ptr noundef %3) #0 align 2 {
  %5 = alloca ptr, align 8
  %6 = alloca ptr, align 8
  %7 = alloca i16, align 2
  %8 = alloca ptr, align 8
  store ptr %0, ptr %5, align 8, !tbaa !59
  store ptr %1, ptr %6, align 8, !tbaa !31
  store i16 %2, ptr %7, align 2, !tbaa !37
  store ptr %3, ptr %8, align 8, !tbaa !61
  %9 = load ptr, ptr %5, align 8
  %10 = load ptr, ptr %6, align 8, !tbaa !31
  %11 = load i16, ptr %7, align 2, !tbaa !37
  %12 = zext i16 %11 to i32
  %13 = sext i32 %12 to i64
  %14 = getelementptr inbounds i8, ptr %10, i64 %13
  %15 = getelementptr inbounds i8, ptr %14, i64 -2
  %16 = call noundef zeroext i16 @_ZN7rocksdb13DecodeFixed16EPKc(ptr noundef %15)
  %17 = getelementptr inbounds nuw %"class.rocksdb::DataBlockHashIndex", ptr %9, i32 0, i32 0
  store i16 %16, ptr %17, align 2, !tbaa !63
  %18 = load i16, ptr %7, align 2, !tbaa !37
  %19 = zext i16 %18 to i64
  %20 = sub i64 %19, 2
  %21 = getelementptr inbounds nuw %"class.rocksdb::DataBlockHashIndex", ptr %9, i32 0, i32 0
  %22 = load i16, ptr %21, align 2, !tbaa !63
  %23 = zext i16 %22 to i64
  %24 = mul i64 %23, 1
  %25 = sub i64 %20, %24
  %26 = trunc i64 %25 to i16
  %27 = load ptr, ptr %8, align 8, !tbaa !61
  store i16 %26, ptr %27, align 2, !tbaa !37
  ret void
}