; Function Attrs: mustprogress nofree norecurse nosync nounwind willreturn memory(argmem: readwrite) uwtable
define void @_ZN7rocksdb18DataBlockHashIndex10InitializeEPKctPt(ptr noundef nonnull writeonly align 2 captures(none) dereferenceable(2) initializes((0, 2)) %0, ptr noundef readonly captures(none) %1, i16 noundef zeroext %2, ptr noundef writeonly captures(none) initializes((0, 2)) %3) local_unnamed_addr #2 align 2 {
  %5 = zext i16 %2 to i64
  %6 = getelementptr inbounds nuw i8, ptr %1, i64 %5
  %7 = getelementptr inbounds i8, ptr %6, i64 -2
  %.0.copyload.i = load i16, ptr %7, align 1
  store i16 %.0.copyload.i, ptr %0, align 2, !tbaa !44
  %8 = add i16 %2, -2
  %9 = sub i16 %8, %.0.copyload.i
  store i16 %9, ptr %3, align 2, !tbaa !39
  ret void
}